target datalayout = "e-m:e-p270:32:32-p271:32:32-p272:64:64-i64:64-i128:128-f80:128-n8:16:32:64-S128"
target triple = "x86_64-pc-linux-gnu"

@ruby_global_symbols = hidden global { i32, [4 x i8], ptr, i64, i64 } { i32 246, [4 x i8] zeroinitializer, ptr null, i64 0, i64 0 }, align 8
@.str = private unnamed_addr constant [38 x i8] c"cannot make operator ID :%li\0B attrset\00", align 1
@.str.1 = private unnamed_addr constant [44 x i8] c"cannot make unknown type ID %d:%li\0B attrset\00", align 1
@.str.2 = private unnamed_addr constant [53 x i8] c"cannot make unknown type anonymous ID %d:%lx attrset\00", align 1
@rb_id_attrset.id_types = internal constant [8 x [8 x i8]] [[8 x i8] c"local\00\00\00", [8 x i8] c"instance", [8 x i8] c"invalid\00", [8 x i8] c"global\00\00", [8 x i8] c"attrset\00", [8 x i8] c"const\00\00\00", [8 x i8] c"class\00\00\00", [8 x i8] c"junk\00\00\00\00"], align 16
@.str.3 = private unnamed_addr constant [42 x i8] c"cannot make anonymous %.*s ID %lx attrset\00", align 1
@.str.4 = private unnamed_addr constant [2 x i8] c"=\00", align 1
@.str.5 = private unnamed_addr constant [12 x i8] c"../symbol.c\00", align 1
@ruby_single_main_ractor = external global ptr, align 8

; Function Attrs: inlinehint nounwind sspstrong uwtable
define internal zeroext i1 @rb_multi_ractor_p() #4 {
  %1 = alloca i1, align 1
  %2 = load ptr, ptr @ruby_single_main_ractor, align 8, !tbaa !94
  %3 = icmp ne ptr %2, null
  %4 = xor i1 %3, true
  %5 = xor i1 %4, true
  %6 = zext i1 %5 to i32
  %7 = sext i32 %6 to i64
  %8 = call i64 @llvm.expect.i64(i64 %7, i64 1)
  %9 = icmp ne i64 %8, 0
  br i1 %9, label %10, label %11

10:                                               ; preds = %0
  store i1 false, ptr %1, align 1
  br label %12

11:                                               ; preds = %0
  store i1 true, ptr %1, align 1
  br label %12

12:                                               ; preds = %11, %10
  %13 = load i1, ptr %1, align 1
  ret i1 %13
}

; Function Attrs: inlinehint nounwind sspstrong uwtable
define internal void @rb_vm_lock_leave(ptr noundef %0, ptr noundef %1, i32 noundef %2) #4 {
  %4 = alloca ptr, align 8
  %5 = alloca ptr, align 8
  %6 = alloca i32, align 4
  store ptr %0, ptr %4, align 8, !tbaa !40
  store ptr %1, ptr %5, align 8, !tbaa !33
  store i32 %2, ptr %6, align 4, !tbaa !21
  %7 = call zeroext i1 @rb_multi_ractor_p()
  br i1 %7, label %8, label %10

8:                                                ; preds = %3
  %9 = load ptr, ptr %4, align 8, !tbaa !40
  call void @rb_vm_lock_leave_body(ptr noundef %9)
  br label %10

10:                                               ; preds = %8, %3
  ret void
}

; Function Attrs: inlinehint nounwind sspstrong uwtable
define internal void @rb_vm_lock_enter(ptr noundef %0, ptr noundef %1, i32 noundef %2) #4 {
  %4 = alloca ptr, align 8
  %5 = alloca ptr, align 8
  %6 = alloca i32, align 4
  store ptr %0, ptr %4, align 8, !tbaa !40
  store ptr %1, ptr %5, align 8, !tbaa !33
  store i32 %2, ptr %6, align 4, !tbaa !21
  %7 = call zeroext i1 @rb_multi_ractor_p()
  br i1 %7, label %8, label %10

8:                                                ; preds = %3
  %9 = load ptr, ptr %4, align 8, !tbaa !40
  call void @rb_vm_lock_enter_body(ptr noundef %9)
  br label %10

10:                                               ; preds = %8, %3
  ret void
}

; Function Attrs: nounwind sspstrong uwtable
define internal i64 @lookup_str_sym(i64 noundef %0) #0 {
  %2 = alloca i64, align 8
  %3 = alloca i64, align 8
  %4 = alloca ptr, align 8
  %5 = alloca i32, align 4
  store i64 %0, ptr %2, align 8, !tbaa !11
  call void @llvm.lifetime.start.p0(i64 8, ptr %3) #24
  call void @llvm.lifetime.start.p0(i64 8, ptr %4) #24
  store ptr @ruby_global_symbols, ptr %4, align 8, !tbaa !7
  call void @llvm.lifetime.start.p0(i64 4, ptr %5) #24
  call void @rb_vm_lock_enter(ptr noundef %5, ptr noundef @.str.5, i32 noundef 752)
  %6 = load ptr, ptr %4, align 8, !tbaa !7
  %7 = load i64, ptr %2, align 8, !tbaa !11
  %8 = call i64 @lookup_str_sym_with_lock(ptr noundef %6, i64 noundef %7)
  store i64 %8, ptr %3, align 8, !tbaa !11
  call void @rb_vm_lock_leave(ptr noundef %5, ptr noundef @.str.5, i32 noundef 756)
  call void @llvm.lifetime.end.p0(i64 4, ptr %5) #24
  %9 = load i64, ptr %3, align 8, !tbaa !11
  call void @llvm.lifetime.end.p0(i64 8, ptr %4) #24
  call void @llvm.lifetime.end.p0(i64 8, ptr %3) #24
  ret i64 %9
}

; Function Attrs: inlinehint nounwind sspstrong uwtable
define internal i32 @id_type(i64 noundef %0) #4 {
  %2 = alloca i32, align 4
  %3 = alloca i64, align 8
  store i64 %0, ptr %3, align 8, !tbaa !11
  %4 = load i64, ptr %3, align 8, !tbaa !11
  %5 = icmp ugt i64 %4, 170
  br i1 %5, label %6, label %10

6:                                                ; preds = %1
  %7 = load i64, ptr %3, align 8, !tbaa !11
  %8 = and i64 %7, 14
  %9 = trunc i64 %8 to i32
  store i32 %9, ptr %2, align 4
  br label %11

10:                                               ; preds = %1
  store i32 -1, ptr %2, align 4
  br label %11

11:                                               ; preds = %10, %6
  %12 = load i32, ptr %2, align 4
  ret i32 %12
}

; Function Attrs: nounwind sspstrong uwtable
define dso_local i64 @rb_id_attrset(i64 noundef %0) #0 {
  %2 = alloca i64, align 8
  %3 = alloca i64, align 8
  %4 = alloca i64, align 8
  %5 = alloca i64, align 8
  %6 = alloca i32, align 4
  %7 = alloca i32, align 4
  store i64 %0, ptr %3, align 8, !tbaa !11
  call void @llvm.lifetime.start.p0(i64 8, ptr %4) #24
  call void @llvm.lifetime.start.p0(i64 8, ptr %5) #24
  call void @llvm.lifetime.start.p0(i64 4, ptr %6) #24
  %8 = load i64, ptr %3, align 8, !tbaa !11
  %9 = icmp ugt i64 %8, 170
  br i1 %9, label %17, label %10

10:                                               ; preds = %1
  %11 = load i64, ptr %3, align 8, !tbaa !11
  switch i64 %11, label %13 [
    i64 145, label %12
    i64 146, label %12
  ]

12:                                               ; preds = %10, %10
  store i64 146, ptr %2, align 8
  store i32 1, ptr %7, align 4
  br label %65

13:                                               ; preds = %10
  %14 = load i64, ptr %3, align 8, !tbaa !11
  %15 = load i64, ptr %3, align 8, !tbaa !11
  %16 = call i64 @rb_id2str(i64 noundef %15)
  call void (i64, ptr, ...) @rb_name_error(i64 noundef %14, ptr noundef @.str, i64 noundef %16) #26
  unreachable

17:                                               ; preds = %1
  %18 = load i64, ptr %3, align 8, !tbaa !11
  %19 = call i32 @id_type(i64 noundef %18)
  store i32 %19, ptr %6, align 4, !tbaa !21
  %20 = load i32, ptr %6, align 4, !tbaa !21
  switch i32 %20, label %24 [
    i32 0, label %21
    i32 2, label %21
    i32 6, label %21
    i32 10, label %21
    i32 12, label %21
    i32 14, label %21
    i32 8, label %22
  ]

21:                                               ; preds = %17, %17, %17, %17, %17, %17
  br label %35

22:                                               ; preds = %17
  %23 = load i64, ptr %3, align 8, !tbaa !11
  store i64 %23, ptr %2, align 8
  store i32 1, ptr %7, align 4
  br label %65

24:                                               ; preds = %17
  %25 = load i64, ptr %3, align 8, !tbaa !11
  %26 = call i64 @lookup_id_str(i64 noundef %25)
  store i64 %26, ptr %4, align 8, !tbaa !11
  %27 = icmp ne i64 %26, 0
  br i1 %27, label %28, label %32

28:                                               ; preds = %24
  %29 = load i64, ptr %3, align 8, !tbaa !11
  %30 = load i32, ptr %6, align 4, !tbaa !21
  %31 = load i64, ptr %4, align 8, !tbaa !11
  call void (i64, ptr, ...) @rb_name_error(i64 noundef %29, ptr noundef @.str.1, i32 noundef %30, i64 noundef %31) #26
  unreachable

32:                                               ; preds = %24
  %33 = load i32, ptr %6, align 4, !tbaa !21
  %34 = load i64, ptr %3, align 8, !tbaa !11
  call void (i64, ptr, ...) @rb_name_error_str(i64 noundef 4, ptr noundef @.str.2, i32 noundef %33, i64 noundef %34) #26
  unreachable

35:                                               ; preds = %21
  br label %36

36:                                               ; preds = %35
  %37 = load i64, ptr %3, align 8, !tbaa !11
  %38 = call i64 @lookup_id_str(i64 noundef %37)
  store i64 %38, ptr %4, align 8, !tbaa !11
  %39 = icmp ne i64 %38, 0
  br i1 %39, label %47, label %40

40:                                               ; preds = %36
  %41 = load i64, ptr %3, align 8, !tbaa !11
  %42 = load i32, ptr %6, align 4, !tbaa !21
  %43 = sext i32 %42 to i64
  %44 = getelementptr [8 x [8 x i8]], ptr @rb_id_attrset.id_types, i64 0, i64 %43
  %45 = getelementptr inbounds [8 x i8], ptr %44, i64 0, i64 0
  %46 = load i64, ptr %3, align 8, !tbaa !11
  call void (i64, ptr, ...) @rb_name_error(i64 noundef %41, ptr noundef @.str.3, i32 noundef 8, ptr noundef %45, i64 noundef %46) #26
  unreachable

47:                                               ; preds = %36
  %48 = load i64, ptr %4, align 8, !tbaa !11
  %49 = call i64 @rb_str_dup(i64 noundef %48)
  store i64 %49, ptr %4, align 8, !tbaa !11
  %50 = load i64, ptr %4, align 8, !tbaa !11
  %51 = call i64 @rb_str_cat(i64 noundef %50, ptr noundef @.str.4, i64 noundef 1)
  %52 = load i64, ptr %4, align 8, !tbaa !11
  %53 = call i64 @lookup_str_sym(i64 noundef %52)
  store i64 %53, ptr %5, align 8, !tbaa !11
  %54 = load i64, ptr %5, align 8, !tbaa !11
  %55 = icmp ne i64 %54, 0
  br i1 %55, label %56, label %59

56:                                               ; preds = %47
  %57 = load i64, ptr %5, align 8, !tbaa !11
  %58 = call i64 @rb_sym2id(i64 noundef %57)
  br label %62

59:                                               ; preds = %47
  %60 = load i64, ptr %4, align 8, !tbaa !11
  %61 = call i64 @intern_str(i64 noundef %60, i32 noundef 1)
  br label %62

62:                                               ; preds = %59, %56
  %63 = phi i64 [ %58, %56 ], [ %61, %59 ]
  store i64 %63, ptr %3, align 8, !tbaa !11
  %64 = load i64, ptr %3, align 8, !tbaa !11
  store i64 %64, ptr %2, align 8
  store i32 1, ptr %7, align 4
  br label %65

65:                                               ; preds = %62, %22, %12
  call void @llvm.lifetime.end.p0(i64 4, ptr %6) #24
  call void @llvm.lifetime.end.p0(i64 8, ptr %5) #24
  call void @llvm.lifetime.end.p0(i64 8, ptr %4) #24
  %66 = load i64, ptr %2, align 8
  ret i64 %66
}