; Function Attrs: nounwind sspstrong uwtable
define dso_local i64 @rb_id_attrset(i64 noundef %0) local_unnamed_addr #0 {
  %2 = alloca i32, align 4
  %3 = icmp ugt i64 %0, 170
  br i1 %3, label %7, label %4

4:                                                ; preds = %1
  %trunc = trunc nuw i64 %0 to i8
  %trunc.off = add i8 %trunc, 111
  %switch = icmp ult i8 %trunc.off, 2
  br i1 %switch, label %31, label %5

5:                                                ; preds = %4
  %6 = tail call i64 @rb_id2str(i64 noundef %0)
  tail call void (i64, ptr, ...) @rb_name_error(i64 noundef %0, ptr noundef nonnull @.str, i64 noundef %6) #20
  unreachable

7:                                                ; preds = %1
  %8 = trunc i64 %0 to i32
  %9 = and i32 %8, 14
  switch i32 %9, label %.unreachabledefault [
    i32 0, label %14
    i32 2, label %14
    i32 6, label %14
    i32 10, label %14
    i32 12, label %14
    i32 14, label %14
    i32 8, label %31
    i32 4, label %10
  ]

.unreachabledefault:                              ; preds = %7
  unreachable

10:                                               ; preds = %7
  %11 = tail call fastcc i64 @lookup_id_str(i64 noundef %0)
  %.not30 = icmp eq i64 %11, 0
  br i1 %.not30, label %13, label %12

12:                                               ; preds = %10
  tail call void (i64, ptr, ...) @rb_name_error(i64 noundef %0, ptr noundef nonnull @.str.1, i32 noundef 4, i64 noundef %11) #20
  unreachable

13:                                               ; preds = %10
  tail call void (i64, ptr, ...) @rb_name_error_str(i64 noundef 4, ptr noundef nonnull @.str.2, i32 noundef 4, i64 noundef %0) #20
  unreachable

14:                                               ; preds = %7, %7, %7, %7, %7, %7
  %15 = tail call fastcc i64 @lookup_id_str(i64 noundef %0)
  %.not = icmp eq i64 %15, 0
  br i1 %.not, label %16, label %19

16:                                               ; preds = %14
  %17 = and i64 %0, 14
  %18 = getelementptr [8 x [8 x i8]], ptr @rb_id_attrset.id_types, i64 0, i64 %17
  tail call void (i64, ptr, ...) @rb_name_error(i64 noundef %0, ptr noundef nonnull @.str.3, i32 noundef 8, ptr noundef %18, i64 noundef %0) #20
  unreachable

19:                                               ; preds = %14
  %20 = tail call i64 @rb_str_dup(i64 noundef %15) #19
  %21 = tail call i64 @rb_str_cat(i64 noundef %20, ptr noundef nonnull @.str.4, i64 noundef 1) #19
  call void @llvm.lifetime.start.p0(i64 4, ptr nonnull %2) #19
  %22 = load ptr, ptr @ruby_single_main_ractor, align 8, !tbaa !24
  %.not.i.i.i = icmp eq ptr %22, null
  br i1 %.not.i.i.i, label %23, label %rb_vm_lock_enter.exit.i

23:                                               ; preds = %19
  call void @rb_vm_lock_enter_body(ptr noundef nonnull %2) #19
  br label %rb_vm_lock_enter.exit.i

rb_vm_lock_enter.exit.i:                          ; preds = %23, %19
  %24 = call fastcc i64 @lookup_str_sym_with_lock(i64 noundef %20)
  %25 = load ptr, ptr @ruby_single_main_ractor, align 8, !tbaa !24
  %.not.i.i2.i = icmp eq ptr %25, null
  br i1 %.not.i.i2.i, label %26, label %lookup_str_sym.exit

26:                                               ; preds = %rb_vm_lock_enter.exit.i
  call void @rb_vm_lock_leave_body(ptr noundef nonnull %2) #19
  br label %lookup_str_sym.exit

lookup_str_sym.exit:                              ; preds = %rb_vm_lock_enter.exit.i, %26
  call void @llvm.lifetime.end.p0(i64 4, ptr nonnull %2) #19
  %.not29 = icmp eq i64 %24, 0
  br i1 %.not29, label %29, label %27

27:                                               ; preds = %lookup_str_sym.exit
  %28 = call i64 @rb_sym2id(i64 noundef %24)
  br label %31

29:                                               ; preds = %lookup_str_sym.exit
  %30 = call fastcc i64 @intern_str(i64 noundef %20, i32 noundef 1)
  br label %31

31:                                               ; preds = %7, %27, %29, %4
  %.0 = phi i64 [ 146, %4 ], [ %0, %7 ], [ %28, %27 ], [ %30, %29 ]
  ret i64 %.0
}